target datalayout = "e-m:e-p270:32:32-p271:32:32-p272:64:64-i64:64-i128:128-f80:128-n8:16:32:64-S128"
target triple = "x86_64-pc-linux-gnu"

%struct.OSSL_TIME = type { i64 }
%struct.CRYPTO_REF_COUNT = type { i32 }
%struct.crypto_ex_data_st = type { ptr, ptr }
%struct.srp_ctx_st = type { ptr, ptr, ptr, ptr, ptr, ptr, ptr, ptr, ptr, ptr, ptr, ptr, ptr, ptr, i32, i64 }
%struct.ssl_ctx_st = type { ptr, ptr, ptr, ptr, ptr, ptr, ptr, i64, ptr, ptr, i32, %struct.OSSL_TIME, ptr, ptr, ptr, %struct.anon.3, %struct.CRYPTO_REF_COUNT, ptr, ptr, ptr, ptr, ptr, ptr, ptr, ptr, ptr, %struct.crypto_ex_data_st, ptr, ptr, ptr, ptr, ptr, ptr, ptr, i64, i32, i32, i32, i64, ptr, ptr, i32, ptr, ptr, i32, i64, [32 x i8], ptr, ptr, ptr, i32, ptr, ptr, ptr, i64, i64, i64, i64, ptr, ptr, ptr, ptr, ptr, %struct.anon.4, ptr, ptr, ptr, ptr, %struct.srp_ctx_st, %struct.dane_ctx_st, ptr, ptr, ptr, ptr, i32, i32, ptr, ptr, i64, i64, ptr, ptr, ptr, i64, ptr, ptr, i32, ptr, ptr, ptr, [14 x i32], [24 x ptr], [14 x ptr], [14 x i64], i64, ptr, ptr, ptr, i64, i64, ptr, i64, i64, i32, i32, i32, i32, ptr, i64, ptr, i64, i64, ptr, ptr }
%struct.anon.3 = type { i32, i32, i32, i32, i32, i32, i32, i32, i32, i32, i32 }
%struct.anon.4 = type { ptr, ptr, [16 x i8], ptr, ptr, ptr, ptr, ptr, i32, i8, i64, ptr, i64, ptr, i64, ptr, i64, ptr, ptr, i64, ptr, ptr, ptr, i64, ptr, ptr, ptr, ptr, [32 x i8] }
%struct.dane_ctx_st = type { ptr, ptr, i8, i64 }
%struct.tls_sigalg_info_st = type { ptr, i16, ptr, ptr, ptr, ptr, ptr, ptr, ptr, ptr, i32, i32, i32 }
%struct.sigalg_lookup_st = type { ptr, i16, i32, i32, i32, i32, i32, i32, i32 }

; Function Attrs: nounwind uwtable
define i32 @tls1_lookup_md(ptr noundef %0, ptr noundef %1, ptr noundef %2) #1 {
  %4 = alloca i32, align 4
  %5 = alloca ptr, align 8
  %6 = alloca ptr, align 8
  %7 = alloca ptr, align 8
  %8 = alloca ptr, align 8
  %9 = alloca i32, align 4
  store ptr %0, ptr %5, align 8, !tbaa !80
  store ptr %1, ptr %6, align 8, !tbaa !201
  store ptr %2, ptr %7, align 8, !tbaa !229
  call void @llvm.lifetime.start.p0(i64 8, ptr %8) #8
  %10 = load ptr, ptr %6, align 8, !tbaa !201
  %11 = icmp eq ptr %10, null
  br i1 %11, label %12, label %13

12:                                               ; preds = %3
  store i32 0, ptr %4, align 4
  store i32 1, ptr %9, align 4
  br label %36

13:                                               ; preds = %3
  %14 = load ptr, ptr %6, align 8, !tbaa !201
  %15 = getelementptr inbounds nuw %struct.sigalg_lookup_st, ptr %14, i32 0, i32 2
  %16 = load i32, ptr %15, align 4, !tbaa !204
  %17 = icmp eq i32 %16, 0
  br i1 %17, label %18, label %19

18:                                               ; preds = %13
  store ptr null, ptr %8, align 8, !tbaa !207
  br label %29

19:                                               ; preds = %13
  %20 = load ptr, ptr %5, align 8, !tbaa !80
  %21 = load ptr, ptr %6, align 8, !tbaa !201
  %22 = getelementptr inbounds nuw %struct.sigalg_lookup_st, ptr %21, i32 0, i32 3
  %23 = load i32, ptr %22, align 8, !tbaa !206
  %24 = call ptr @ssl_md(ptr noundef %20, i32 noundef %23)
  store ptr %24, ptr %8, align 8, !tbaa !207
  %25 = load ptr, ptr %8, align 8, !tbaa !207
  %26 = icmp eq ptr %25, null
  br i1 %26, label %27, label %28

27:                                               ; preds = %19
  store i32 0, ptr %4, align 4
  store i32 1, ptr %9, align 4
  br label %36

28:                                               ; preds = %19
  br label %29

29:                                               ; preds = %28, %18
  %30 = load ptr, ptr %7, align 8, !tbaa !229
  %31 = icmp ne ptr %30, null
  br i1 %31, label %32, label %35

32:                                               ; preds = %29
  %33 = load ptr, ptr %8, align 8, !tbaa !207
  %34 = load ptr, ptr %7, align 8, !tbaa !229
  store ptr %33, ptr %34, align 8, !tbaa !207
  br label %35

35:                                               ; preds = %32, %29
  store i32 1, ptr %4, align 4
  store i32 1, ptr %9, align 4
  br label %36

36:                                               ; preds = %35, %27, %12
  call void @llvm.lifetime.end.p0(i64 8, ptr %8) #8
  %37 = load i32, ptr %4, align 4
  ret i32 %37
}

; Function Attrs: nounwind uwtable
define internal i32 @sigalg_security_bits(ptr noundef %0, ptr noundef %1) #1 {
  %3 = alloca i32, align 4
  %4 = alloca ptr, align 8
  %5 = alloca ptr, align 8
  %6 = alloca ptr, align 8
  %7 = alloca i32, align 4
  %8 = alloca i32, align 4
  %9 = alloca i32, align 4
  store ptr %0, ptr %4, align 8, !tbaa !80
  store ptr %1, ptr %5, align 8, !tbaa !201
  call void @llvm.lifetime.start.p0(i64 8, ptr %6) #8
  store ptr null, ptr %6, align 8, !tbaa !207
  call void @llvm.lifetime.start.p0(i64 4, ptr %7) #8
  store i32 0, ptr %7, align 4, !tbaa !128
  %10 = load ptr, ptr %4, align 8, !tbaa !80
  %11 = load ptr, ptr %5, align 8, !tbaa !201
  %12 = call i32 @tls1_lookup_md(ptr noundef %10, ptr noundef %11, ptr noundef %6)
  %13 = icmp ne i32 %12, 0
  br i1 %13, label %15, label %14

14:                                               ; preds = %2
  store i32 0, ptr %3, align 4
  store i32 1, ptr %8, align 4
  br label %93

15:                                               ; preds = %2
  %16 = load ptr, ptr %6, align 8, !tbaa !207
  %17 = icmp ne ptr %16, null
  br i1 %17, label %18, label %45

18:                                               ; preds = %15
  call void @llvm.lifetime.start.p0(i64 4, ptr %9) #8
  %19 = load ptr, ptr %6, align 8, !tbaa !207
  %20 = call i32 @EVP_MD_get_type(ptr noundef %19)
  store i32 %20, ptr %9, align 4, !tbaa !128
  %21 = load ptr, ptr %6, align 8, !tbaa !207
  %22 = call i32 @EVP_MD_get_size(ptr noundef %21)
  %23 = mul nsw i32 %22, 4
  store i32 %23, ptr %7, align 4, !tbaa !128
  %24 = load i32, ptr %7, align 4, !tbaa !128
  %25 = icmp sle i32 %24, 0
  br i1 %25, label %26, label %27

26:                                               ; preds = %18
  store i32 0, ptr %3, align 4
  store i32 1, ptr %8, align 4
  br label %42

27:                                               ; preds = %18
  %28 = load i32, ptr %9, align 4, !tbaa !128
  %29 = icmp eq i32 %28, 64
  br i1 %29, label %30, label %31

30:                                               ; preds = %27
  store i32 64, ptr %7, align 4, !tbaa !128
  br label %41

31:                                               ; preds = %27
  %32 = load i32, ptr %9, align 4, !tbaa !128
  %33 = icmp eq i32 %32, 114
  br i1 %33, label %34, label %35

34:                                               ; preds = %31
  store i32 67, ptr %7, align 4, !tbaa !128
  br label %40

35:                                               ; preds = %31
  %36 = load i32, ptr %9, align 4, !tbaa !128
  %37 = icmp eq i32 %36, 4
  br i1 %37, label %38, label %39

38:                                               ; preds = %35
  store i32 39, ptr %7, align 4, !tbaa !128
  br label %39

39:                                               ; preds = %38, %35
  br label %40

40:                                               ; preds = %39, %34
  br label %41

41:                                               ; preds = %40, %30
  store i32 0, ptr %8, align 4
  br label %42

42:                                               ; preds = %41, %26
  call void @llvm.lifetime.end.p0(i64 4, ptr %9) #8
  %43 = load i32, ptr %8, align 4
  switch i32 %43, label %93 [
    i32 0, label %44
  ]

44:                                               ; preds = %42
  br label %61

45:                                               ; preds = %15
  %46 = load ptr, ptr %5, align 8, !tbaa !201
  %47 = getelementptr inbounds nuw %struct.sigalg_lookup_st, ptr %46, i32 0, i32 1
  %48 = load i16, ptr %47, align 8, !tbaa !218
  %49 = zext i16 %48 to i32
  %50 = icmp eq i32 %49, 2055
  br i1 %50, label %51, label %52

51:                                               ; preds = %45
  store i32 128, ptr %7, align 4, !tbaa !128
  br label %60

52:                                               ; preds = %45
  %53 = load ptr, ptr %5, align 8, !tbaa !201
  %54 = getelementptr inbounds nuw %struct.sigalg_lookup_st, ptr %53, i32 0, i32 1
  %55 = load i16, ptr %54, align 8, !tbaa !218
  %56 = zext i16 %55 to i32
  %57 = icmp eq i32 %56, 2056
  br i1 %57, label %58, label %59

58:                                               ; preds = %52
  store i32 224, ptr %7, align 4, !tbaa !128
  br label %59

59:                                               ; preds = %58, %52
  br label %60

60:                                               ; preds = %59, %51
  br label %61

61:                                               ; preds = %60, %44
  %62 = load i32, ptr %7, align 4, !tbaa !128
  %63 = icmp eq i32 %62, 0
  br i1 %63, label %64, label %91

64:                                               ; preds = %61
  %65 = load ptr, ptr %5, align 8, !tbaa !201
  %66 = getelementptr inbounds nuw %struct.sigalg_lookup_st, ptr %65, i32 0, i32 5
  %67 = load i32, ptr %66, align 8, !tbaa !220
  %68 = icmp sge i32 %67, 9
  br i1 %68, label %69, label %91

69:                                               ; preds = %64
  %70 = load ptr, ptr %5, align 8, !tbaa !201
  %71 = getelementptr inbounds nuw %struct.sigalg_lookup_st, ptr %70, i32 0, i32 5
  %72 = load i32, ptr %71, align 8, !tbaa !220
  %73 = sub nsw i32 %72, 9
  %74 = load ptr, ptr %4, align 8, !tbaa !80
  %75 = getelementptr inbounds nuw %struct.ssl_ctx_st, ptr %74, i32 0, i32 101
  %76 = load i64, ptr %75, align 8, !tbaa !116
  %77 = trunc i64 %76 to i32
  %78 = icmp slt i32 %73, %77
  br i1 %78, label %79, label %91

79:                                               ; preds = %69
  %80 = load ptr, ptr %4, align 8, !tbaa !80
  %81 = getelementptr inbounds nuw %struct.ssl_ctx_st, ptr %80, i32 0, i32 100
  %82 = load ptr, ptr %81, align 8, !tbaa !118
  %83 = load ptr, ptr %5, align 8, !tbaa !201
  %84 = getelementptr inbounds nuw %struct.sigalg_lookup_st, ptr %83, i32 0, i32 5
  %85 = load i32, ptr %84, align 8, !tbaa !220
  %86 = sub nsw i32 %85, 9
  %87 = sext i32 %86 to i64
  %88 = getelementptr inbounds %struct.tls_sigalg_info_st, ptr %82, i64 %87
  %89 = getelementptr inbounds nuw %struct.tls_sigalg_info_st, ptr %88, i32 0, i32 10
  %90 = load i32, ptr %89, align 8, !tbaa !250
  store i32 %90, ptr %7, align 4, !tbaa !128
  br label %91

91:                                               ; preds = %79, %69, %64, %61
  %92 = load i32, ptr %7, align 4, !tbaa !128
  store i32 %92, ptr %3, align 4
  store i32 1, ptr %8, align 4
  br label %93

93:                                               ; preds = %91, %42, %14
  call void @llvm.lifetime.end.p0(i64 4, ptr %7) #8
  call void @llvm.lifetime.end.p0(i64 8, ptr %6) #8
  %94 = load i32, ptr %3, align 4
  ret i32 %94
}