; Function Attrs: nounwind uwtable
define internal fastcc i32 @sigalg_security_bits(ptr noundef %0, ptr noundef nonnull readonly captures(none) %1) unnamed_addr #2 {
  %3 = getelementptr inbounds nuw i8, ptr %1, i64 12
  %4 = load i32, ptr %3, align 4, !tbaa !178
  %5 = icmp eq i32 %4, 0
  br i1 %5, label %19, label %6

6:                                                ; preds = %2
  %7 = getelementptr inbounds nuw i8, ptr %1, i64 16
  %8 = load i32, ptr %7, align 8, !tbaa !180
  %9 = tail call ptr @ssl_md(ptr noundef %0, i32 noundef %8) #14
  %10 = icmp eq ptr %9, null
  br i1 %10, label %tls1_lookup_md.exit, label %11

11:                                               ; preds = %6
  %12 = tail call i32 @EVP_MD_get_type(ptr noundef nonnull %9) #14
  %13 = tail call i32 @EVP_MD_get_size(ptr noundef nonnull %9) #14
  %14 = icmp sgt i32 %13, 0
  br i1 %14, label %15, label %tls1_lookup_md.exit

15:                                               ; preds = %11
  switch i32 %12, label %.thread37.thread [
    i32 64, label %tls1_lookup_md.exit
    i32 114, label %17
    i32 4, label %18
  ]

.thread37.thread:                                 ; preds = %15
  %16 = shl nsw i32 %13, 2
  br label %tls1_lookup_md.exit

17:                                               ; preds = %15
  br label %tls1_lookup_md.exit

18:                                               ; preds = %15
  br label %tls1_lookup_md.exit

19:                                               ; preds = %2
  %20 = getelementptr inbounds nuw i8, ptr %1, i64 8
  %21 = load i16, ptr %20, align 8, !tbaa !187
  %switch.selectcmp27 = icmp eq i16 %21, 2055
  br i1 %switch.selectcmp27, label %tls1_lookup_md.exit, label %.thread37

.thread37:                                        ; preds = %19
  %switch.selectcmp.not = icmp eq i16 %21, 2056
  %switch.select = select i1 %switch.selectcmp.not, i32 224, i32 0
  br i1 %switch.selectcmp.not, label %tls1_lookup_md.exit, label %22

22:                                               ; preds = %.thread37
  %23 = getelementptr inbounds nuw i8, ptr %1, i64 24
  %24 = load i32, ptr %23, align 8, !tbaa !188
  %25 = icmp sgt i32 %24, 8
  br i1 %25, label %26, label %tls1_lookup_md.exit

26:                                               ; preds = %22
  %27 = add nsw i32 %24, -9
  %28 = getelementptr inbounds nuw i8, ptr %0, i64 1688
  %29 = load i64, ptr %28, align 8, !tbaa !110
  %30 = trunc i64 %29 to i32
  %31 = icmp slt i32 %27, %30
  br i1 %31, label %32, label %tls1_lookup_md.exit

32:                                               ; preds = %26
  %33 = getelementptr inbounds nuw i8, ptr %0, i64 1680
  %34 = load ptr, ptr %33, align 8, !tbaa !112
  %35 = zext nneg i32 %27 to i64
  %36 = getelementptr inbounds nuw %struct.tls_sigalg_info_st, ptr %34, i64 %35, i32 10
  %37 = load i32, ptr %36, align 8, !tbaa !216
  br label %tls1_lookup_md.exit

tls1_lookup_md.exit:                              ; preds = %.thread37.thread, %17, %18, %15, %19, %11, %6, %.thread37, %22, %26, %32
  %.0 = phi i32 [ %37, %32 ], [ 0, %26 ], [ 0, %22 ], [ %switch.select, %.thread37 ], [ 0, %6 ], [ 0, %11 ], [ 128, %19 ], [ 67, %17 ], [ 39, %18 ], [ %12, %15 ], [ %16, %.thread37.thread ]
  ret i32 %.0
}